(dp0
S'right'
p1
(lp2
(dp3
S'sfreqCycDeg'
p4
F0.3
sS'maskDiameterDeg'
p5
F5.0
sS'ori'
p6
F348.0
sS'mask'
p7
S'circle'
p8
sS'widthDeg'
p9
F3.942465877908282
sS'yorigDeg'
p10
F5.534836428922698
sS'tfreqCycSec'
p11
F2.0
sS'gheightDeg'
p12
F5.0
sS'xorigDeg'
p13
F-0.493552293024954
sS'bheightDeg'
p14
F0.6864686690886224
sag3
asS'left'
p15
(lp16
(dp17
S'sfreqCycDeg'
p18
F0.3
sS'maskDiameterDeg'
p19
F5.0
sS'ori'
p20
F288.0
sS'mask'
p21
S'circle'
p22
sS'widthDeg'
p23
F3.942465877908282
sS'yorigDeg'
p24
F5.534836428922698
sS'tfreqCycSec'
p25
F2.0
sS'gheightDeg'
p26
F5.0
sS'xorigDeg'
p27
F-0.493552293024954
sS'bheightDeg'
p28
F0.6864686690886224
sag17
as.