(dp0
S'right'
p1
(lp2
(dp3
S'sfreqCycDeg'
p4
F0.5
sS'widthDeg'
p5
F4.851292770386803
sS'bheightDeg'
p6
F0.7001980424703949
sS'mask'
p7
S'circle'
p8
sS'maskDiameterDeg'
p9
F4.851292770386803
sS'yorigDeg'
p10
F3.3212265690016163
sS'ori'
p11
F288.0
sS'gheightDeg'
p12
F15.0
sS'xorigDeg'
p13
F-5.410385217244569
sS'tfreqCycSec'
p14
F2.0
sag3
asS'left'
p15
(lp16
(dp17
S'sfreqCycDeg'
p18
F0.5
sS'maskDiameterDeg'
p19
F4.851292770386803
sS'tfreqCycSec'
p20
F2.0
sS'mask'
p21
S'circle'
p22
sS'widthDeg'
p23
F4.851292770386803
sS'yorigDeg'
p24
F3.2676583985338485
sS'ori'
p25
F288.0
sS'gheightDeg'
p26
F15.0
sS'xorigDeg'
p27
F-10.23152055934369
sS'bheightDeg'
p28
F0.7001980424703949
sag17
as.