(dp0
S'right'
p1
(lp2
(dp3
S'sfreqCycDeg'
p4
F0.25
sS'bheightDeg'
p5
F0.8706082567959168
sS'yorigDeg'
p6
F1.8
sS'ori'
p7
F45.0
sS'gheightDeg'
p8
F15.0
sS'phase0'
p9
F135.5
sS'widthDeg'
p10
F10.0
sS'mask'
p11
S'circle'
p12
sS'maskDiameterDeg'
p13
F10.0
sS'tfreqCycSec'
p14
F2.0
sS'xorigDeg'
p15
F1.6
sag3
asS'left'
p16
(lp17
(dp18
S'phase0'
p19
F25.5
sS'sfreqCycDeg'
p20
F0.55
sS'widthDeg'
p21
F3.7152788212696164
sS'bheightDeg'
p22
F0.5521013780435412
sS'mask'
p23
S'circle'
p24
sS'maskDiameterDeg'
p25
F10.0
sS'yorigDeg'
p26
F1.5
sS'ori'
p27
F45.0
sS'gheightDeg'
p28
F15.0
sS'xorigDeg'
p29
F-1.2
sS'tfreqCycSec'
p30
F2.0
sag18
as.