(dp0
S'right'
p1
(lp2
(dp3
S'sfreqCycDeg'
p4
F0.5
sS'widthDeg'
p5
F10.0
sS'bheightDeg'
p6
F0.6730084991064925
sS'mask'
p7
S'circle'
p8
sS'maskDiameterDeg'
p9
F10.0
sS'yorigDeg'
p10
F1.5329659984673645
sS'ori'
p11
F264.0
sS'gheightDeg'
p12
F15.0
sS'xorigDeg'
p13
F-8.109884637053156
sS'tfreqCycSec'
p14
F2.0
sa(dp15
S'widthDeg'
p16
F9.373275048018126
sS'xorigDeg'
p17
F-8.381170769749053
sS'yorigDeg'
p18
F-1.809570961650364
sS'barheightDeg'
p19
F1.1717240879051882
sS'ori'
p20
F132.0
sasS'left'
p21
(lp22
(dp23
S'sfreqCycDeg'
p24
F0.5
sS'widthDeg'
p25
F10.0
sS'bheightDeg'
p26
F0.563143405604412
sS'mask'
p27
S'circle'
p28
sS'maskDiameterDeg'
p29
F10.0
sS'yorigDeg'
p30
F2.86812993261636
sS'ori'
p31
F108.0
sS'gheightDeg'
p32
F15.0
sS'xorigDeg'
p33
F-7.269225863700084
sS'tfreqCycSec'
p34
F2.0
sa(dp35
S'sfreqCycDeg'
p36
F0.5
sS'widthDeg'
p37
F10.0
sS'ori'
p38
F180.0
sS'mask'
p39
S'circle'
p40
sS'maskDiameterDeg'
p41
F10.0
sS'yorigDeg'
p42
F2.9175804486959516
sS'bheightDeg'
p43
F0.563143405604412
sS'gheightDeg'
p44
F15.0
sS'xorigDeg'
p45
F3.065931996934729
sS'tfreqCycSec'
p46
F2.0
sas.